; ModuleID = 'source-C-CXX/60/384.cpp'
source_filename = "source-C-CXX/60/384.cpp"
target datalayout = "e-m:e-p270:32:32-p271:32:32-p272:64:64-i64:64-f80:128-n8:16:32:64-S128"
target triple = "x86_64-pc-linux-gnu"

%"class.std::ios_base::Init" = type { i8 }
%"class.std::basic_istream" = type { i32 (...)**, i64, %"class.std::basic_ios" }
%"class.std::basic_ios" = type { %"class.std::ios_base", %"class.std::basic_ostream"*, i8, i8, %"class.std::basic_streambuf"*, %"class.std::ctype"*, %"class.std::num_put"*, %"class.std::num_get"* }
%"class.std::ios_base" = type { i32 (...)**, i64, i64, i32, i32, i32, %"struct.std::ios_base::_Callback_list"*, %"struct.std::ios_base::_Words", [8 x %"struct.std::ios_base::_Words"], i32, %"struct.std::ios_base::_Words"*, %"class.std::locale" }
%"struct.std::ios_base::_Callback_list" = type { %"struct.std::ios_base::_Callback_list"*, void (i32, %"class.std::ios_base"*, i32)*, i32, i32 }
%"struct.std::ios_base::_Words" = type { i8*, i64 }
%"class.std::locale" = type { %"class.std::locale::_Impl"* }
%"class.std::locale::_Impl" = type { i32, %"class.std::locale::facet"**, i64, %"class.std::locale::facet"**, i8** }
%"class.std::locale::facet" = type <{ i32 (...)**, i32, [4 x i8] }>
%"class.std::basic_ostream" = type { i32 (...)**, %"class.std::basic_ios" }
%"class.std::basic_streambuf" = type { i32 (...)**, i8*, i8*, i8*, i8*, i8*, i8*, %"class.std::locale" }
%"class.std::ctype" = type <{ %"class.std::locale::facet.base", [4 x i8], %struct.__locale_struct*, i8, [7 x i8], i32*, i32*, i16*, i8, [256 x i8], [256 x i8], i8, [6 x i8] }>
%"class.std::locale::facet.base" = type <{ i32 (...)**, i32 }>
%struct.__locale_struct = type { [13 x %struct.__locale_data*], i16*, i32*, i32*, [13 x i8*] }
%struct.__locale_data = type opaque
%"class.std::num_put" = type { %"class.std::locale::facet.base", [4 x i8] }
%"class.std::num_get" = type { %"class.std::locale::facet.base", [4 x i8] }

@_ZStL8__ioinit = internal global %"class.std::ios_base::Init" zeroinitializer, align 1
@__dso_handle = external hidden global i8
@a = dso_local local_unnamed_addr global <{ i32, i32, [18 x i32] }> <{ i32 1, i32 1, [18 x i32] zeroinitializer }>, align 16
@n = dso_local global i32 0, align 4
@i = dso_local local_unnamed_addr global i32 0, align 4
@k = dso_local global i32 0, align 4
@j = dso_local local_unnamed_addr global i32 0, align 4
@_ZSt3cin = external global %"class.std::basic_istream", align 8
@_ZSt4cout = external global %"class.std::basic_ostream", align 8
@llvm.global_ctors = appending global [1 x { i32, void ()*, i8* }] [{ i32, void ()*, i8* } { i32 65535, void ()* @_GLOBAL__sub_I_384.cpp, i8* null }]

declare void @_ZNSt8ios_base4InitC1Ev(%"class.std::ios_base::Init"* nonnull align 1 dereferenceable(1)) unnamed_addr #0

; Function Attrs: nounwind
declare void @_ZNSt8ios_base4InitD1Ev(%"class.std::ios_base::Init"* nonnull align 1 dereferenceable(1)) unnamed_addr #1

; Function Attrs: nofree nounwind
declare i32 @__cxa_atexit(void (i8*)*, i8*, i8*) local_unnamed_addr #2

; Function Attrs: mustprogress norecurse sspstrong uwtable
define dso_local i32 @main() local_unnamed_addr #3 {
  %1 = tail call nonnull align 8 dereferenceable(16) %"class.std::basic_istream"* @_ZNSirsERi(%"class.std::basic_istream"* nonnull align 8 dereferenceable(16) @_ZSt3cin, i32* nonnull align 4 dereferenceable(4) @n)
  store i32 1, i32* @i, align 4, !tbaa !5
  %2 = load i32, i32* @n, align 4, !tbaa !5
  %3 = icmp slt i32 %2, 1
  br i1 %3, label %84, label %4

4:                                                ; preds = %0, %76
  %5 = tail call nonnull align 8 dereferenceable(16) %"class.std::basic_istream"* @_ZNSirsERi(%"class.std::basic_istream"* nonnull align 8 dereferenceable(16) @_ZSt3cin, i32* nonnull align 4 dereferenceable(4) @k)
  %6 = load i32, i32* @k, align 4, !tbaa !5
  %7 = icmp sgt i32 %6, 2
  br i1 %7, label %8, label %45

8:                                                ; preds = %4
  %9 = zext i32 %6 to i64
  %10 = load i32, i32* getelementptr inbounds (<{ i32, i32, [18 x i32] }>, <{ i32, i32, [18 x i32] }>* @a, i64 0, i32 1), align 4, !tbaa !5
  %11 = and i64 %9, 1
  %12 = icmp eq i32 %6, 3
  br i1 %12, label %34, label %13

13:                                               ; preds = %8
  %14 = add nsw i64 %9, -2
  %15 = and i64 %14, -2
  br label %16

16:                                               ; preds = %16, %13
  %17 = phi i32 [ %10, %13 ], [ %29, %16 ]
  %18 = phi i64 [ 2, %13 ], [ %31, %16 ]
  %19 = phi i64 [ %15, %13 ], [ %32, %16 ]
  %20 = add nsw i64 %18, -2
  %21 = getelementptr inbounds [20 x i32], [20 x i32]* bitcast (<{ i32, i32, [18 x i32] }>* @a to [20 x i32]*), i64 0, i64 %20
  %22 = load i32, i32* %21, align 8, !tbaa !5
  %23 = add nsw i32 %22, %17
  %24 = getelementptr inbounds [20 x i32], [20 x i32]* bitcast (<{ i32, i32, [18 x i32] }>* @a to [20 x i32]*), i64 0, i64 %18
  store i32 %23, i32* %24, align 8, !tbaa !5
  %25 = or i64 %18, 1
  %26 = add nsw i64 %18, -1
  %27 = getelementptr inbounds [20 x i32], [20 x i32]* bitcast (<{ i32, i32, [18 x i32] }>* @a to [20 x i32]*), i64 0, i64 %26
  %28 = load i32, i32* %27, align 4, !tbaa !5
  %29 = add nsw i32 %28, %23
  %30 = getelementptr inbounds [20 x i32], [20 x i32]* bitcast (<{ i32, i32, [18 x i32] }>* @a to [20 x i32]*), i64 0, i64 %25
  store i32 %29, i32* %30, align 4, !tbaa !5
  %31 = add nuw nsw i64 %18, 2
  %32 = add i64 %19, -2
  %33 = icmp eq i64 %32, 0
  br i1 %33, label %34, label %16, !llvm.loop !9

34:                                               ; preds = %16, %8
  %35 = phi i32 [ %10, %8 ], [ %29, %16 ]
  %36 = phi i64 [ 2, %8 ], [ %31, %16 ]
  %37 = icmp eq i64 %11, 0
  br i1 %37, label %44, label %38

38:                                               ; preds = %34
  %39 = add nsw i64 %36, -2
  %40 = getelementptr inbounds [20 x i32], [20 x i32]* bitcast (<{ i32, i32, [18 x i32] }>* @a to [20 x i32]*), i64 0, i64 %39
  %41 = load i32, i32* %40, align 4, !tbaa !5
  %42 = add nsw i32 %41, %35
  %43 = getelementptr inbounds [20 x i32], [20 x i32]* bitcast (<{ i32, i32, [18 x i32] }>* @a to [20 x i32]*), i64 0, i64 %36
  store i32 %42, i32* %43, align 4, !tbaa !5
  br label %44

44:                                               ; preds = %34, %38
  store i32 %6, i32* @j, align 4, !tbaa !5
  br label %45

45:                                               ; preds = %44, %4
  %46 = add nsw i32 %6, -1
  %47 = sext i32 %46 to i64
  %48 = getelementptr inbounds [20 x i32], [20 x i32]* bitcast (<{ i32, i32, [18 x i32] }>* @a to [20 x i32]*), i64 0, i64 %47
  %49 = load i32, i32* %48, align 4, !tbaa !5
  %50 = tail call nonnull align 8 dereferenceable(8) %"class.std::basic_ostream"* @_ZNSolsEi(%"class.std::basic_ostream"* nonnull align 8 dereferenceable(8) @_ZSt4cout, i32 %49)
  %51 = bitcast %"class.std::basic_ostream"* %50 to i8**
  %52 = load i8*, i8** %51, align 8, !tbaa !11
  %53 = getelementptr i8, i8* %52, i64 -24
  %54 = bitcast i8* %53 to i64*
  %55 = load i64, i64* %54, align 8
  %56 = bitcast %"class.std::basic_ostream"* %50 to i8*
  %57 = add nsw i64 %55, 240
  %58 = getelementptr inbounds i8, i8* %56, i64 %57
  %59 = bitcast i8* %58 to %"class.std::ctype"**
  %60 = load %"class.std::ctype"*, %"class.std::ctype"** %59, align 8, !tbaa !13
  %61 = icmp eq %"class.std::ctype"* %60, null
  br i1 %61, label %62, label %63

62:                                               ; preds = %45
  tail call void @_ZSt16__throw_bad_castv() #6
  unreachable

63:                                               ; preds = %45
  %64 = getelementptr inbounds %"class.std::ctype", %"class.std::ctype"* %60, i64 0, i32 8
  %65 = load i8, i8* %64, align 8, !tbaa !17
  %66 = icmp eq i8 %65, 0
  br i1 %66, label %70, label %67

67:                                               ; preds = %63
  %68 = getelementptr inbounds %"class.std::ctype", %"class.std::ctype"* %60, i64 0, i32 9, i64 10
  %69 = load i8, i8* %68, align 1, !tbaa !19
  br label %76

70:                                               ; preds = %63
  tail call void @_ZNKSt5ctypeIcE13_M_widen_initEv(%"class.std::ctype"* nonnull align 8 dereferenceable(570) %60)
  %71 = bitcast %"class.std::ctype"* %60 to i8 (%"class.std::ctype"*, i8)***
  %72 = load i8 (%"class.std::ctype"*, i8)**, i8 (%"class.std::ctype"*, i8)*** %71, align 8, !tbaa !11
  %73 = getelementptr inbounds i8 (%"class.std::ctype"*, i8)*, i8 (%"class.std::ctype"*, i8)** %72, i64 6
  %74 = load i8 (%"class.std::ctype"*, i8)*, i8 (%"class.std::ctype"*, i8)** %73, align 8
  %75 = tail call signext i8 %74(%"class.std::ctype"* nonnull align 8 dereferenceable(570) %60, i8 signext 10)
  br label %76

76:                                               ; preds = %67, %70
  %77 = phi i8 [ %69, %67 ], [ %75, %70 ]
  %78 = tail call nonnull align 8 dereferenceable(8) %"class.std::basic_ostream"* @_ZNSo3putEc(%"class.std::basic_ostream"* nonnull align 8 dereferenceable(8) %50, i8 signext %77)
  %79 = tail call nonnull align 8 dereferenceable(8) %"class.std::basic_ostream"* @_ZNSo5flushEv(%"class.std::basic_ostream"* nonnull align 8 dereferenceable(8) %78)
  %80 = load i32, i32* @i, align 4, !tbaa !5
  %81 = add nsw i32 %80, 1
  store i32 %81, i32* @i, align 4, !tbaa !5
  %82 = load i32, i32* @n, align 4, !tbaa !5
  %83 = icmp slt i32 %80, %82
  br i1 %83, label %4, label %84, !llvm.loop !20

84:                                               ; preds = %76, %0
  ret i32 0
}

declare nonnull align 8 dereferenceable(16) %"class.std::basic_istream"* @_ZNSirsERi(%"class.std::basic_istream"* nonnull align 8 dereferenceable(16), i32* nonnull align 4 dereferenceable(4)) local_unnamed_addr #0

declare nonnull align 8 dereferenceable(8) %"class.std::basic_ostream"* @_ZNSolsEi(%"class.std::basic_ostream"* nonnull align 8 dereferenceable(8), i32) local_unnamed_addr #0

declare nonnull align 8 dereferenceable(8) %"class.std::basic_ostream"* @_ZNSo3putEc(%"class.std::basic_ostream"* nonnull align 8 dereferenceable(8), i8 signext) local_unnamed_addr #0

declare nonnull align 8 dereferenceable(8) %"class.std::basic_ostream"* @_ZNSo5flushEv(%"class.std::basic_ostream"* nonnull align 8 dereferenceable(8)) local_unnamed_addr #0

; Function Attrs: noreturn
declare void @_ZSt16__throw_bad_castv() local_unnamed_addr #4

declare void @_ZNKSt5ctypeIcE13_M_widen_initEv(%"class.std::ctype"* nonnull align 8 dereferenceable(570)) local_unnamed_addr #0

; Function Attrs: sspstrong uwtable
define internal void @_GLOBAL__sub_I_384.cpp() #5 section ".text.startup" {
  tail call void @_ZNSt8ios_base4InitC1Ev(%"class.std::ios_base::Init"* nonnull align 1 dereferenceable(1) @_ZStL8__ioinit)
  %1 = tail call i32 @__cxa_atexit(void (i8*)* bitcast (void (%"class.std::ios_base::Init"*)* @_ZNSt8ios_base4InitD1Ev to void (i8*)*), i8* getelementptr inbounds (%"class.std::ios_base::Init", %"class.std::ios_base::Init"* @_ZStL8__ioinit, i64 0, i32 0), i8* nonnull @__dso_handle) #7
  ret void
}


!llvm.module.flags = !{!0, !1, !2, !3}
!llvm.ident = !{!4}

!0 = !{i32 1, !"wchar_size", i32 4}
!1 = !{i32 7, !"PIC Level", i32 2}
!2 = !{i32 7, !"PIE Level", i32 2}
!3 = !{i32 7, !"uwtable", i32 1}
!4 = !{!"clang version 13.0.0"}
!5 = !{!6, !6, i64 0}
!6 = !{!"int", !7, i64 0}
!7 = !{!"omnipotent char", !8, i64 0}
!8 = !{!"Simple C++ TBAA"}
!9 = distinct !{!9, !10}
!10 = !{!"llvm.loop.mustprogress"}
!11 = !{!12, !12, i64 0}
!12 = !{!"vtable pointer", !8, i64 0}
!13 = !{!14, !15, i64 240}
!14 = !{!"_ZTSSt9basic_iosIcSt11char_traitsIcEE", !15, i64 216, !7, i64 224, !16, i64 225, !15, i64 232, !15, i64 240, !15, i64 248, !15, i64 256}
!15 = !{!"any pointer", !7, i64 0}
!16 = !{!"bool", !7, i64 0}
!17 = !{!18, !7, i64 56}
!18 = !{!"_ZTSSt5ctypeIcE", !15, i64 16, !16, i64 24, !15, i64 32, !15, i64 40, !15, i64 48, !7, i64 56, !7, i64 57, !7, i64 313, !7, i64 569}
!19 = !{!7, !7, i64 0}
!20 = distinct !{!20, !10}
